target datalayout = "e-m:e-p270:32:32-p271:32:32-p272:64:64-i64:64-i128:128-f80:128-n8:16:32:64-S128"
target triple = "x86_64-pc-linux-gnu"

@.str.42 = private unnamed_addr constant [4 x i8] c"%lu\00", align 1
@.str.47 = private unnamed_addr constant [4 x i8] c"max\00", align 1

; Function Attrs: mustprogress nounwind uwtable
define hidden noundef i64 @_ZN16CgroupController14limit_from_strEPc(ptr noundef %0) #1 align 2 {
  %2 = alloca i64, align 8
  %3 = alloca ptr, align 8
  %4 = alloca i64, align 8
  store ptr %0, ptr %3, align 8
  %5 = load ptr, ptr %3, align 8
  %6 = icmp eq ptr %5, null
  br i1 %6, label %7, label %8

7:                                                ; preds = %1
  store i64 -2, ptr %2, align 8
  br label %20

8:                                                ; preds = %1
  %9 = load ptr, ptr %3, align 8
  %10 = call i32 @strcmp(ptr noundef @.str.47, ptr noundef %9) #9
  %11 = icmp eq i32 %10, 0
  br i1 %11, label %12, label %13

12:                                               ; preds = %8
  store i64 -1, ptr %2, align 8
  br label %20

13:                                               ; preds = %8
  %14 = load ptr, ptr %3, align 8
  %15 = call i32 (ptr, ptr, ...) @__isoc99_sscanf(ptr noundef %14, ptr noundef @.str.42, ptr noundef %4) #8
  %16 = icmp ne i32 %15, 1
  br i1 %16, label %17, label %18

17:                                               ; preds = %13
  store i64 -2, ptr %2, align 8
  br label %20

18:                                               ; preds = %13
  %19 = load i64, ptr %4, align 8
  store i64 %19, ptr %2, align 8
  br label %20

20:                                               ; preds = %18, %17, %12, %7
  %21 = load i64, ptr %2, align 8
  ret i64 %21
}