; Function Attrs: mustprogress nofree nounwind uwtable
define hidden noundef i64 @_ZN16CgroupController14limit_from_strEPc(ptr noundef readonly %0) local_unnamed_addr #7 align 2 {
  %2 = alloca i64, align 8
  %3 = icmp eq ptr %0, null
  br i1 %3, label %10, label %4

4:                                                ; preds = %1
  %5 = tail call i32 @strcmp(ptr noundef nonnull dereferenceable(4) @.str.47, ptr noundef nonnull dereferenceable(1) %0) #14
  %6 = icmp eq i32 %5, 0
  br i1 %6, label %10, label %7

7:                                                ; preds = %4
  %8 = call i32 (ptr, ptr, ...) @__isoc99_sscanf(ptr noundef nonnull %0, ptr noundef nonnull @.str.42, ptr noundef nonnull %2) #13
  %.not = icmp eq i32 %8, 1
  %9 = load i64, ptr %2, align 8
  %spec.select = select i1 %.not, i64 %9, i64 -2
  br label %10

10:                                               ; preds = %7, %4, %1
  %.0 = phi i64 [ -2, %1 ], [ -1, %4 ], [ %spec.select, %7 ]
  ret i64 %.0
}